target datalayout = "e-m:e-p270:32:32-p271:32:32-p272:64:64-i64:64-i128:128-f80:128-n8:16:32:64-S128"
target triple = "x86_64-unknown-linux-gnu"

@.str = private unnamed_addr constant [117 x i8] c"generated/home/dtcxzyw/WorkSpace/Projects/compilers/llvm-opt-benchmark/bench/z3/z3/src/sat/sat_integrity_checker.cpp\00", align 1
@.str.9 = private unnamed_addr constant [40 x i8] c"Failed to verify: check_clause(*(*it))\0A\00", align 1

; Function Attrs: mustprogress uwtable
define hidden noundef zeroext i1 @_ZNK3sat17integrity_checker13check_clausesEPKPNS_6clauseES4_(ptr noundef nonnull align 8 dereferenceable(8) %this, ptr noundef %begin, ptr noundef %end) #5 align 2 {
entry:
  %this.addr = alloca ptr, align 8
  %begin.addr = alloca ptr, align 8
  %end.addr = alloca ptr, align 8
  %it = alloca ptr, align 8
  store ptr %this, ptr %this.addr, align 8
  store ptr %begin, ptr %begin.addr, align 8
  store ptr %end, ptr %end.addr, align 8
  %this1 = load ptr, ptr %this.addr, align 8
  %0 = load ptr, ptr %begin.addr, align 8
  store ptr %0, ptr %it, align 8
  br label %for.cond

for.cond:                                         ; preds = %for.inc, %entry
  %1 = load ptr, ptr %it, align 8
  %2 = load ptr, ptr %end.addr, align 8
  %cmp = icmp ne ptr %1, %2
  br i1 %cmp, label %for.body, label %for.end

for.body:                                         ; preds = %for.cond
  %3 = load ptr, ptr %it, align 8
  %4 = load ptr, ptr %3, align 8
  %call = call noundef zeroext i1 @_ZNK3sat17integrity_checker12check_clauseERKNS_6clauseE(ptr noundef nonnull align 8 dereferenceable(8) %this1, ptr noundef nonnull align 4 dereferenceable(20) %4)
  br i1 %call, label %if.end, label %if.then

if.then:                                          ; preds = %for.body
  call void @_Z26notify_assertion_violationPKciS0_(ptr noundef @.str, i32 noundef 93, ptr noundef @.str.9)
  call void @exit(i32 noundef 114) #11
  unreachable

if.end:                                           ; preds = %for.body
  br label %for.inc

for.inc:                                          ; preds = %if.end
  %5 = load ptr, ptr %it, align 8
  %incdec.ptr = getelementptr inbounds ptr, ptr %5, i32 1
  store ptr %incdec.ptr, ptr %it, align 8
  br label %for.cond, !llvm.loop !8

for.end:                                          ; preds = %for.cond
  ret i1 true
}