; Function Attrs: mustprogress uwtable
define hidden noundef zeroext i1 @_ZNK3sat17integrity_checker13check_clausesEPKPNS_6clauseES4_(ptr nocapture noundef nonnull readonly align 8 dereferenceable(8) %this, ptr noundef readonly %begin, ptr noundef readnone %end) local_unnamed_addr #4 align 2 {
entry:
  %cmp.not3 = icmp eq ptr %begin, %end
  br i1 %cmp.not3, label %for.end, label %for.body

for.body:                                         ; preds = %entry, %for.body
  %it.04 = phi ptr [ %incdec.ptr, %for.body ], [ %begin, %entry ]
  %0 = load ptr, ptr %it.04, align 8
  %call = tail call noundef zeroext i1 @_ZNK3sat17integrity_checker12check_clauseERKNS_6clauseE(ptr noundef nonnull align 8 dereferenceable(8) %this, ptr noundef nonnull align 4 dereferenceable(20) %0)
  %incdec.ptr = getelementptr inbounds i8, ptr %it.04, i64 8
  %cmp.not = icmp eq ptr %incdec.ptr, %end
  br i1 %cmp.not, label %for.end, label %for.body, !llvm.loop !8

for.end:                                          ; preds = %for.body, %entry
  ret i1 true
}